; Function Attrs: mustprogress nofree norecurse nosync nounwind willreturn memory(read, inaccessiblemem: none) uwtable
define internal noundef zeroext i1 @"_ZNSt17_Function_handlerIFbRKN4llvm13LegalityQueryEEZNS0_20AArch64LegalizerInfoC1ERKNS0_16AArch64SubtargetEE4$_16E9_M_invokeERKSt9_Any_dataS3_"(ptr nocapture noundef nonnull readonly align 8 dereferenceable(16) %0, ptr nocapture noundef nonnull readonly align 8 dereferenceable(40) %1) #11 align 2 {
  %.val = load ptr, ptr %0, align 8
  %3 = getelementptr inbounds i8, ptr %1, i64 8
  %.val2 = load ptr, ptr %3, align 8
  %4 = getelementptr inbounds i8, ptr %1, i64 24
  %.val3 = load ptr, ptr %4, align 8
  %.val2.val = load i64, ptr %.val2, align 8
  %5 = getelementptr i8, ptr %.val2, i64 8
  %.val2.val4 = load i64, ptr %5, align 8
  %.val3.val = load i64, ptr %.val3, align 8
  %6 = load i64, ptr %.val, align 8
  %spec.select.i.i.not.i.i.i = icmp eq i64 %.val2.val4, %6
  br i1 %spec.select.i.i.not.i.i.i, label %7, label %"_ZSt10__invoke_rIbRZN4llvm20AArch64LegalizerInfoC1ERKNS0_16AArch64SubtargetEE4$_16JRKNS0_13LegalityQueryEEENSt9enable_ifIX16is_invocable_r_vIT_T0_DpT1_EESB_E4typeEOSC_DpOSD_.exit"

7:                                                ; preds = %2
  %8 = getelementptr inbounds nuw i8, ptr %.val, i64 8
  %9 = load i64, ptr %8, align 8
  %spec.select.i.i.i.i = icmp eq i64 %.val2.val, %9
  br i1 %spec.select.i.i.i.i, label %10, label %13

10:                                               ; preds = %7
  %11 = getelementptr inbounds nuw i8, ptr %.val, i64 16
  %12 = load i64, ptr %11, align 8
  %spec.select.i5.i.i.i = icmp eq i64 %.val3.val, %12
  br label %"_ZSt10__invoke_rIbRZN4llvm20AArch64LegalizerInfoC1ERKNS0_16AArch64SubtargetEE4$_16JRKNS0_13LegalityQueryEEENSt9enable_ifIX16is_invocable_r_vIT_T0_DpT1_EESB_E4typeEOSC_DpOSD_.exit"

13:                                               ; preds = %7
  %14 = getelementptr inbounds nuw i8, ptr %.val, i64 24
  %15 = load i64, ptr %14, align 8
  %spec.select.i6.i.i.i = icmp eq i64 %.val2.val, %15
  br i1 %spec.select.i6.i.i.i, label %16, label %19

16:                                               ; preds = %13
  %17 = getelementptr inbounds nuw i8, ptr %.val, i64 16
  %18 = load i64, ptr %17, align 8
  %spec.select.i7.i.i.i = icmp eq i64 %.val3.val, %18
  %spec.select.i8.i.i.i = icmp eq i64 %.val3.val, %9
  %spec.select.i.i.i = or i1 %spec.select.i8.i.i.i, %spec.select.i7.i.i.i
  br label %"_ZSt10__invoke_rIbRZN4llvm20AArch64LegalizerInfoC1ERKNS0_16AArch64SubtargetEE4$_16JRKNS0_13LegalityQueryEEENSt9enable_ifIX16is_invocable_r_vIT_T0_DpT1_EESB_E4typeEOSC_DpOSD_.exit"

19:                                               ; preds = %13
  %20 = getelementptr inbounds nuw i8, ptr %.val, i64 32
  %21 = load i64, ptr %20, align 8
  %spec.select.i9.i.i.i = icmp eq i64 %.val2.val, %21
  br i1 %spec.select.i9.i.i.i, label %22, label %"_ZSt10__invoke_rIbRZN4llvm20AArch64LegalizerInfoC1ERKNS0_16AArch64SubtargetEE4$_16JRKNS0_13LegalityQueryEEENSt9enable_ifIX16is_invocable_r_vIT_T0_DpT1_EESB_E4typeEOSC_DpOSD_.exit"

22:                                               ; preds = %19
  %23 = getelementptr inbounds nuw i8, ptr %.val, i64 16
  %24 = load i64, ptr %23, align 8
  %spec.select.i10.i.i.i = icmp eq i64 %.val3.val, %24
  %spec.select.i11.i.i.i = icmp eq i64 %.val3.val, %9
  %or.cond.i.i.i = or i1 %spec.select.i11.i.i.i, %spec.select.i10.i.i.i
  %spec.select.i12.i.i.i = icmp eq i64 %.val3.val, %15
  %spec.select10.i.i.i = or i1 %spec.select.i12.i.i.i, %or.cond.i.i.i
  br label %"_ZSt10__invoke_rIbRZN4llvm20AArch64LegalizerInfoC1ERKNS0_16AArch64SubtargetEE4$_16JRKNS0_13LegalityQueryEEENSt9enable_ifIX16is_invocable_r_vIT_T0_DpT1_EESB_E4typeEOSC_DpOSD_.exit"

"_ZSt10__invoke_rIbRZN4llvm20AArch64LegalizerInfoC1ERKNS0_16AArch64SubtargetEE4$_16JRKNS0_13LegalityQueryEEENSt9enable_ifIX16is_invocable_r_vIT_T0_DpT1_EESB_E4typeEOSC_DpOSD_.exit": ; preds = %2, %10, %16, %19, %22
  %.0.i.i.i = phi i1 [ %spec.select.i5.i.i.i, %10 ], [ false, %2 ], [ false, %19 ], [ %spec.select.i.i.i, %16 ], [ %spec.select10.i.i.i, %22 ]
  ret i1 %.0.i.i.i
}